; ModuleID = '45/2452.c'
source_filename = "45/2452.c"
target datalayout = "e-m:e-p270:32:32-p271:32:32-p272:64:64-i64:64-f80:128-n8:16:32:64-S128"
target triple = "x86_64-pc-linux-gnu"

@.str = private unnamed_addr constant [4 x i8] c"%d\0A\00", align 1

; Function Attrs: noinline nounwind uwtable
define dso_local i32 @main() #0 {
  %1 = alloca i32, align 4
  %2 = alloca [50 x i8], align 16
  %3 = alloca [50 x i8], align 16
  %4 = alloca [102 x i8], align 16
  %5 = alloca [50 x i8], align 16
  %6 = alloca i32, align 4
  %7 = alloca i32, align 4
  %8 = alloca i32, align 4
  %9 = alloca i32, align 4
  %10 = alloca i32, align 4
  store i32 0, i32* %1, align 4
  %11 = bitcast [50 x i8]* %2 to i8*
  call void @llvm.memset.p0i8.i64(i8* align 16 %11, i8 0, i64 50, i1 false)
  %12 = bitcast [50 x i8]* %3 to i8*
  call void @llvm.memset.p0i8.i64(i8* align 16 %12, i8 0, i64 50, i1 false)
  %13 = bitcast [50 x i8]* %5 to i8*
  call void @llvm.memset.p0i8.i64(i8* align 16 %13, i8 0, i64 50, i1 false)
  %14 = getelementptr inbounds [102 x i8], [102 x i8]* %4, i64 0, i64 0
  %15 = call i32 (i8*, ...) bitcast (i32 (...)* @gets to i32 (i8*, ...)*)(i8* %14)
  store i32 0, i32* %6, align 4
  br label %16

16:                                               ; preds = %32, %0
  %17 = load i32, i32* %6, align 4
  %18 = sub nsw i32 %17, 1
  %19 = sext i32 %18 to i64
  %20 = getelementptr inbounds [102 x i8], [102 x i8]* %4, i64 0, i64 %19
  %21 = load i8, i8* %20, align 1
  %22 = sext i8 %21 to i32
  %23 = icmp ne i32 %22, 32
  br i1 %23, label %24, label %35

24:                                               ; preds = %16
  %25 = load i32, i32* %6, align 4
  %26 = sext i32 %25 to i64
  %27 = getelementptr inbounds [102 x i8], [102 x i8]* %4, i64 0, i64 %26
  %28 = load i8, i8* %27, align 1
  %29 = load i32, i32* %6, align 4
  %30 = sext i32 %29 to i64
  %31 = getelementptr inbounds [50 x i8], [50 x i8]* %3, i64 0, i64 %30
  store i8 %28, i8* %31, align 1
  br label %32

32:                                               ; preds = %24
  %33 = load i32, i32* %6, align 4
  %34 = add nsw i32 %33, 1
  store i32 %34, i32* %6, align 4
  br label %16

35:                                               ; preds = %16
  %36 = load i32, i32* %6, align 4
  %37 = sub nsw i32 %36, 1
  %38 = sext i32 %37 to i64
  %39 = getelementptr inbounds [50 x i8], [50 x i8]* %3, i64 0, i64 %38
  store i8 0, i8* %39, align 1
  store i32 0, i32* %7, align 4
  br label %40

40:                                               ; preds = %59, %35
  %41 = load i32, i32* %6, align 4
  %42 = load i32, i32* %7, align 4
  %43 = add nsw i32 %41, %42
  %44 = sext i32 %43 to i64
  %45 = getelementptr inbounds [102 x i8], [102 x i8]* %4, i64 0, i64 %44
  %46 = load i8, i8* %45, align 1
  %47 = sext i8 %46 to i32
  %48 = icmp ne i32 %47, 0
  br i1 %48, label %49, label %62

49:                                               ; preds = %40
  %50 = load i32, i32* %6, align 4
  %51 = load i32, i32* %7, align 4
  %52 = add nsw i32 %50, %51
  %53 = sext i32 %52 to i64
  %54 = getelementptr inbounds [102 x i8], [102 x i8]* %4, i64 0, i64 %53
  %55 = load i8, i8* %54, align 1
  %56 = load i32, i32* %7, align 4
  %57 = sext i32 %56 to i64
  %58 = getelementptr inbounds [50 x i8], [50 x i8]* %2, i64 0, i64 %57
  store i8 %55, i8* %58, align 1
  br label %59

59:                                               ; preds = %49
  %60 = load i32, i32* %7, align 4
  %61 = add nsw i32 %60, 1
  store i32 %61, i32* %7, align 4
  br label %40

62:                                               ; preds = %40
  %63 = getelementptr inbounds [50 x i8], [50 x i8]* %3, i64 0, i64 0
  %64 = call i64 @strlen(i8* %63) #4
  %65 = trunc i64 %64 to i32
  store i32 %65, i32* %8, align 4
  %66 = getelementptr inbounds [50 x i8], [50 x i8]* %2, i64 0, i64 0
  %67 = call i64 @strlen(i8* %66) #4
  %68 = trunc i64 %67 to i32
  store i32 %68, i32* %9, align 4
  store i32 0, i32* %6, align 4
  br label %69

69:                                               ; preds = %101, %62
  %70 = load i32, i32* %6, align 4
  %71 = load i32, i32* %9, align 4
  %72 = icmp slt i32 %70, %71
  br i1 %72, label %73, label %104

73:                                               ; preds = %69
  store i32 0, i32* %7, align 4
  br label %74

74:                                               ; preds = %88, %73
  %75 = load i32, i32* %7, align 4
  %76 = load i32, i32* %8, align 4
  %77 = icmp slt i32 %75, %76
  br i1 %77, label %78, label %91

78:                                               ; preds = %74
  %79 = load i32, i32* %7, align 4
  %80 = load i32, i32* %6, align 4
  %81 = add nsw i32 %79, %80
  %82 = sext i32 %81 to i64
  %83 = getelementptr inbounds [50 x i8], [50 x i8]* %2, i64 0, i64 %82
  %84 = load i8, i8* %83, align 1
  %85 = load i32, i32* %7, align 4
  %86 = sext i32 %85 to i64
  %87 = getelementptr inbounds [50 x i8], [50 x i8]* %5, i64 0, i64 %86
  store i8 %84, i8* %87, align 1
  br label %88

88:                                               ; preds = %78
  %89 = load i32, i32* %7, align 4
  %90 = add nsw i32 %89, 1
  store i32 %90, i32* %7, align 4
  br label %74

91:                                               ; preds = %74
  %92 = getelementptr inbounds [50 x i8], [50 x i8]* %3, i64 0, i64 0
  %93 = getelementptr inbounds [50 x i8], [50 x i8]* %5, i64 0, i64 0
  %94 = call i32 @strcmp(i8* %92, i8* %93) #4
  store i32 %94, i32* %10, align 4
  %95 = load i32, i32* %10, align 4
  %96 = icmp eq i32 %95, 0
  br i1 %96, label %97, label %100

97:                                               ; preds = %91
  %98 = load i32, i32* %6, align 4
  %99 = call i32 (i8*, ...) @printf(i8* getelementptr inbounds ([4 x i8], [4 x i8]* @.str, i64 0, i64 0), i32 %98)
  br label %104

100:                                              ; preds = %91
  br label %101

101:                                              ; preds = %100
  %102 = load i32, i32* %6, align 4
  %103 = add nsw i32 %102, 1
  store i32 %103, i32* %6, align 4
  br label %69

104:                                              ; preds = %97, %69
  %105 = load i32, i32* %1, align 4
  ret i32 %105
}

; Function Attrs: argmemonly nounwind willreturn
declare void @llvm.memset.p0i8.i64(i8* nocapture writeonly, i8, i64, i1 immarg) #1

declare dso_local i32 @gets(...) #2

; Function Attrs: nounwind readonly
declare dso_local i64 @strlen(i8*) #3

; Function Attrs: nounwind readonly
declare dso_local i32 @strcmp(i8*, i8*) #3

declare dso_local i32 @printf(i8*, ...) #2


!llvm.module.flags = !{!0}
!llvm.ident = !{!1}

!0 = !{i32 1, !"wchar_size", i32 4}
!1 = !{!"clang version 10.0.0-4ubuntu1 "}
